(dp1
S'title'
p2
(dp3
S'type'
p4
S'string'
p5
sS'sortable'
p6
I2
sS'sql'
p7
S'CHAR(512)'
p8
ssS'url'
p9
(dp10
g4
g5
sg6
I5
sg7
S'CHAR(512)'
p11
ssS'content'
p12
(dp13
g4
S'text'
p14
sg6
I4
sg7
S'TEXT'
p15
ssS'date'
p16
(dp17
g4
g16
sg6
I3
sg7
S'DATE'
p18
ssS'id'
p19
(dp20
g4
g19
sg6
I1
sg7
S'INTEGER PRIMARY KEY AUTOINCREMENT'
p21
ssS'categories'
p22
(dp23
g4
S'list:reference category'
p24
sg6
I6
sg7
S'TEXT'
p25
ssS'post_tags'
p26
(dp27
g4
S'list:reference post_tag'
p28
sg6
I7
sg7
g25
ss.