(dp1
S'taxonomy'
p2
(dp3
S'type'
p4
S'string'
p5
sS'sortable'
p6
I3
sS'sql'
p7
S'VARCHAR(255)'
p8
ssS'id'
p9
(dp10
S'sortable'
p11
I1
sS'type'
p12
S'id'
p13
sS'sql'
p14
S'INT AUTO_INCREMENT NOT NULL'
p15
ssS'name'
p16
(dp17
g11
I2
sg12
S'string'
p18
sg14
S'VARCHAR(255)'
p19
ss.