(dp1
S'article'
p2
(dp3
S'type'
p4
S'reference article'
p5
sS'sortable'
p6
I2
sS'sql'
p7
S'INT, INDEX article__idx (article), FOREIGN KEY (article) REFERENCES article(id) ON DELETE CASCADE'
p8
ssS'tag'
p9
(dp10
g4
S'reference tag'
p11
sg6
I3
sg7
S'INT, INDEX tag__idx (tag), FOREIGN KEY (tag) REFERENCES tag(id) ON DELETE CASCADE'
p12
ssS'id'
p13
(dp14
g4
g13
sg6
I1
sg7
S'INT AUTO_INCREMENT NOT NULL'
p15
ss.